target datalayout = "e-m:e-p270:32:32-p271:32:32-p272:64:64-i64:64-i128:128-f80:128-n8:16:32:64-S128"
target triple = "x86_64-pc-linux-gnu"

%struct.H5F_object_flush_t = type { ptr, ptr }
%struct.H5VL_connector_prop_t = type { ptr, ptr }
%struct.H5CX_node_t = type { %struct.H5CX_t, ptr }
%struct.H5CX_t = type { i64, ptr, i64, ptr, i64, ptr, i64, ptr, i64, ptr, i64, ptr, i64, i32, i64, i8, ptr, i8, ptr, i8, i32, i8, [3 x double], i8, i64, i8, i32, i8, %struct.H5Z_cb_t, i8, ptr, i8, %struct.H5T_vlen_alloc_info_t, i8, %struct.H5T_conv_cb_t, i8, i32, i8, i8, i8, i32, i8, i8, i32, i8, i8, i32, i8, i32, i8, i64, i8, i8, i8, i8, i8, ptr, i8, ptr, i8, i32, i8, i32, i8, %struct.H5VL_connector_prop_t, i8, ptr, i8 }
%struct.H5Z_cb_t = type { ptr, ptr }
%struct.H5T_vlen_alloc_info_t = type { ptr, ptr, ptr, ptr }
%struct.H5T_conv_cb_t = type { ptr, ptr }

@H5P_CLS_FILE_ACCESS_ID_g = external global i64, align 8
@H5P_init_g = external global i8, align 1
@H5_libterm_g = external global i8, align 1
@.str.2 = private unnamed_addr constant [101 x i8] c"generated/home/dtcxzyw/WorkSpace/Projects/compilers/llvm-opt-benchmark/bench/hdf5/hdf5/src/H5Pfapl.c\00", align 1
@H5E_BADID_g = external global i64, align 8
@H5E_CANTSET_g = external global i64, align 8
@H5E_PLIST_g = external global i64, align 8
@H5_libinit_g = external global i8, align 1
@H5E_FUNC_g = external global i64, align 8
@H5E_CANTINIT_g = external global i64, align 8
@.str.15 = private unnamed_addr constant [30 x i8] c"library initialization failed\00", align 1
@.str.16 = private unnamed_addr constant [32 x i8] c"interface initialization failed\00", align 1
@.str.17 = private unnamed_addr constant [22 x i8] c"can't set API context\00", align 1
@H5E_ARGS_g = external global i64, align 8
@H5E_BADVALUE_g = external global i64, align 8
@H5E_ID_g = external global i64, align 8
@.str.19 = private unnamed_addr constant [25 x i8] c"can't find object for ID\00", align 1
@__func__.H5Pset_object_flush_cb = private unnamed_addr constant [23 x i8] c"H5Pset_object_flush_cb\00", align 1
@.str.118 = private unnamed_addr constant [40 x i8] c"callback is NULL while user data is not\00", align 1
@.str.119 = private unnamed_addr constant [16 x i8] c"object_flush_cb\00", align 1
@.str.120 = private unnamed_addr constant [32 x i8] c"can't set object flush callback\00", align 1

; Function Attrs: nounwind uwtable
define i32 @H5Pset_object_flush_cb(i64 noundef %0, ptr noundef %1, ptr noundef %2) #0 {
  %4 = alloca i64, align 8
  %5 = alloca ptr, align 8
  %6 = alloca ptr, align 8
  %7 = alloca ptr, align 8
  %8 = alloca %struct.H5F_object_flush_t, align 8
  %9 = alloca i32, align 4
  %10 = alloca %struct.H5CX_node_t, align 8
  %11 = alloca i8, align 1
  %12 = alloca i8, align 1
  store i64 %0, ptr %4, align 8, !tbaa !8
  store ptr %1, ptr %5, align 8, !tbaa !32
  store ptr %2, ptr %6, align 8, !tbaa !32
  call void @llvm.lifetime.start.p0(i64 8, ptr %7) #10
  call void @llvm.lifetime.start.p0(i64 16, ptr %8) #10
  call void @llvm.lifetime.start.p0(i64 4, ptr %9) #10
  store i32 0, ptr %9, align 4, !tbaa !20
  call void @llvm.lifetime.start.p0(i64 480, ptr %10) #10
  call void @llvm.memset.p0.i64(ptr align 8 %10, i8 0, i64 480, i1 false)
  call void @llvm.lifetime.start.p0(i64 1, ptr %11) #10
  store i8 0, ptr %11, align 1, !tbaa !22
  call void @llvm.lifetime.start.p0(i64 1, ptr %12) #10
  store i8 0, ptr %12, align 1, !tbaa !22
  br label %13

13:                                               ; preds = %3
  %14 = load i8, ptr @H5_libinit_g, align 1, !tbaa !22, !range !24, !noundef !25
  %15 = trunc i8 %14 to i1
  br i1 %15, label %20, label %16

16:                                               ; preds = %13
  %17 = load i8, ptr @H5_libterm_g, align 1, !tbaa !22, !range !24, !noundef !25
  %18 = trunc i8 %17 to i1
  %19 = xor i1 %18, true
  br label %20

20:                                               ; preds = %16, %13
  %21 = phi i1 [ false, %13 ], [ %19, %16 ]
  %22 = xor i1 %21, true
  %23 = xor i1 %22, true
  %24 = zext i1 %23 to i32
  %25 = sext i32 %24 to i64
  %26 = call i64 @llvm.expect.i64(i64 %25, i64 0)
  %27 = icmp ne i64 %26, 0
  br i1 %27, label %28, label %57

28:                                               ; preds = %20
  %29 = call i32 @H5_init_library()
  %30 = icmp slt i32 %29, 0
  %31 = xor i1 %30, true
  %32 = xor i1 %31, true
  %33 = zext i1 %32 to i32
  %34 = sext i32 %33 to i64
  %35 = call i64 @llvm.expect.i64(i64 %34, i64 0)
  %36 = icmp ne i64 %35, 0
  br i1 %36, label %37, label %56

37:                                               ; preds = %28
  br label %38

38:                                               ; preds = %37
  br label %39

39:                                               ; preds = %38
  br label %40

40:                                               ; preds = %39
  %41 = load i64, ptr @H5E_FUNC_g, align 8, !tbaa !8
  %42 = load i64, ptr @H5E_CANTINIT_g, align 8, !tbaa !8
  %43 = call i32 (ptr, ptr, i32, i64, i64, ptr, ...) @H5E_printf_stack(ptr noundef @.str.2, ptr noundef @__func__.H5Pset_object_flush_cb, i32 noundef 4540, i64 noundef %41, i64 noundef %42, ptr noundef @.str.15)
  br label %44

44:                                               ; preds = %40
  br label %45

45:                                               ; preds = %44
  store i8 1, ptr %12, align 1, !tbaa !22
  %46 = load i8, ptr %12, align 1, !tbaa !22, !range !24, !noundef !25
  %47 = trunc i8 %46 to i1
  %48 = zext i1 %47 to i8
  store i8 %48, ptr %12, align 1, !tbaa !22
  br label %49

49:                                               ; preds = %45
  br label %50

50:                                               ; preds = %49
  br label %51

51:                                               ; preds = %50
  store i32 -1, ptr %9, align 4, !tbaa !20
  br label %207

52:                                               ; No predecessors!
  br label %53

53:                                               ; preds = %52
  br label %54

54:                                               ; preds = %53
  br label %55

55:                                               ; preds = %54
  br label %56

56:                                               ; preds = %55, %28
  br label %57

57:                                               ; preds = %56, %20
  %58 = load i8, ptr @H5P_init_g, align 1, !tbaa !22, !range !24, !noundef !25
  %59 = trunc i8 %58 to i1
  br i1 %59, label %64, label %60

60:                                               ; preds = %57
  %61 = load i8, ptr @H5_libterm_g, align 1, !tbaa !22, !range !24, !noundef !25
  %62 = trunc i8 %61 to i1
  %63 = xor i1 %62, true
  br label %64

64:                                               ; preds = %60, %57
  %65 = phi i1 [ false, %57 ], [ %63, %60 ]
  %66 = xor i1 %65, true
  %67 = xor i1 %66, true
  %68 = zext i1 %67 to i32
  %69 = sext i32 %68 to i64
  %70 = call i64 @llvm.expect.i64(i64 %69, i64 0)
  %71 = icmp ne i64 %70, 0
  br i1 %71, label %72, label %95

72:                                               ; preds = %64
  store i8 1, ptr @H5P_init_g, align 1, !tbaa !22
  %73 = call i32 @H5P__init_package()
  %74 = icmp slt i32 %73, 0
  br i1 %74, label %75, label %94

75:                                               ; preds = %72
  store i8 0, ptr @H5P_init_g, align 1, !tbaa !22
  br label %76

76:                                               ; preds = %75
  br label %77

77:                                               ; preds = %76
  br label %78

78:                                               ; preds = %77
  %79 = load i64, ptr @H5E_FUNC_g, align 8, !tbaa !8
  %80 = load i64, ptr @H5E_CANTINIT_g, align 8, !tbaa !8
  %81 = call i32 (ptr, ptr, i32, i64, i64, ptr, ...) @H5E_printf_stack(ptr noundef @.str.2, ptr noundef @__func__.H5Pset_object_flush_cb, i32 noundef 4540, i64 noundef %79, i64 noundef %80, ptr noundef @.str.16)
  br label %82

82:                                               ; preds = %78
  br label %83

83:                                               ; preds = %82
  store i8 1, ptr %12, align 1, !tbaa !22
  %84 = load i8, ptr %12, align 1, !tbaa !22, !range !24, !noundef !25
  %85 = trunc i8 %84 to i1
  %86 = zext i1 %85 to i8
  store i8 %86, ptr %12, align 1, !tbaa !22
  br label %87

87:                                               ; preds = %83
  br label %88

88:                                               ; preds = %87
  br label %89

89:                                               ; preds = %88
  store i32 -1, ptr %9, align 4, !tbaa !20
  br label %207

90:                                               ; No predecessors!
  br label %91

91:                                               ; preds = %90
  br label %92

92:                                               ; preds = %91
  br label %93

93:                                               ; preds = %92
  br label %94

94:                                               ; preds = %93, %72
  br label %95

95:                                               ; preds = %94, %64
  br label %96

96:                                               ; preds = %95
  br label %97

97:                                               ; preds = %96
  br label %98

98:                                               ; preds = %97
  %99 = call i32 @H5CX_push(ptr noundef %10)
  %100 = icmp slt i32 %99, 0
  %101 = xor i1 %100, true
  %102 = xor i1 %101, true
  %103 = zext i1 %102 to i32
  %104 = sext i32 %103 to i64
  %105 = call i64 @llvm.expect.i64(i64 %104, i64 0)
  %106 = icmp ne i64 %105, 0
  br i1 %106, label %107, label %126

107:                                              ; preds = %98
  br label %108

108:                                              ; preds = %107
  br label %109

109:                                              ; preds = %108
  br label %110

110:                                              ; preds = %109
  %111 = load i64, ptr @H5E_FUNC_g, align 8, !tbaa !8
  %112 = load i64, ptr @H5E_CANTSET_g, align 8, !tbaa !8
  %113 = call i32 (ptr, ptr, i32, i64, i64, ptr, ...) @H5E_printf_stack(ptr noundef @.str.2, ptr noundef @__func__.H5Pset_object_flush_cb, i32 noundef 4540, i64 noundef %111, i64 noundef %112, ptr noundef @.str.17)
  br label %114

114:                                              ; preds = %110
  br label %115

115:                                              ; preds = %114
  store i8 1, ptr %12, align 1, !tbaa !22
  %116 = load i8, ptr %12, align 1, !tbaa !22, !range !24, !noundef !25
  %117 = trunc i8 %116 to i1
  %118 = zext i1 %117 to i8
  store i8 %118, ptr %12, align 1, !tbaa !22
  br label %119

119:                                              ; preds = %115
  br label %120

120:                                              ; preds = %119
  br label %121

121:                                              ; preds = %120
  store i32 -1, ptr %9, align 4, !tbaa !20
  br label %207

122:                                              ; No predecessors!
  br label %123

123:                                              ; preds = %122
  br label %124

124:                                              ; preds = %123
  br label %125

125:                                              ; preds = %124
  br label %127

126:                                              ; preds = %98
  store i8 1, ptr %11, align 1, !tbaa !22
  br label %127

127:                                              ; preds = %126, %125
  br label %128

128:                                              ; preds = %127
  br label %129

129:                                              ; preds = %128
  %130 = call i32 @H5E_clear_stack()
  %131 = load ptr, ptr %5, align 8, !tbaa !32
  %132 = icmp ne ptr %131, null
  br i1 %132, label %155, label %133

133:                                              ; preds = %129
  %134 = load ptr, ptr %6, align 8, !tbaa !32
  %135 = icmp ne ptr %134, null
  br i1 %135, label %136, label %155

136:                                              ; preds = %133
  br label %137

137:                                              ; preds = %136
  br label %138

138:                                              ; preds = %137
  br label %139

139:                                              ; preds = %138
  %140 = load i64, ptr @H5E_ARGS_g, align 8, !tbaa !8
  %141 = load i64, ptr @H5E_BADVALUE_g, align 8, !tbaa !8
  %142 = call i32 (ptr, ptr, i32, i64, i64, ptr, ...) @H5E_printf_stack(ptr noundef @.str.2, ptr noundef @__func__.H5Pset_object_flush_cb, i32 noundef 4545, i64 noundef %140, i64 noundef %141, ptr noundef @.str.118)
  br label %143

143:                                              ; preds = %139
  br label %144

144:                                              ; preds = %143
  store i8 1, ptr %12, align 1, !tbaa !22
  %145 = load i8, ptr %12, align 1, !tbaa !22, !range !24, !noundef !25
  %146 = trunc i8 %145 to i1
  %147 = zext i1 %146 to i8
  store i8 %147, ptr %12, align 1, !tbaa !22
  br label %148

148:                                              ; preds = %144
  br label %149

149:                                              ; preds = %148
  br label %150

150:                                              ; preds = %149
  store i32 -1, ptr %9, align 4, !tbaa !20
  br label %207

151:                                              ; No predecessors!
  br label %152

152:                                              ; preds = %151
  br label %153

153:                                              ; preds = %152
  br label %154

154:                                              ; preds = %153
  br label %155

155:                                              ; preds = %154, %133, %129
  %156 = load i64, ptr %4, align 8, !tbaa !8
  %157 = load i64, ptr @H5P_CLS_FILE_ACCESS_ID_g, align 8, !tbaa !8
  %158 = call ptr @H5P_object_verify(i64 noundef %156, i64 noundef %157, i1 noundef zeroext false)
  store ptr %158, ptr %7, align 8, !tbaa !28
  %159 = icmp eq ptr null, %158
  br i1 %159, label %160, label %179

160:                                              ; preds = %155
  br label %161

161:                                              ; preds = %160
  br label %162

162:                                              ; preds = %161
  br label %163

163:                                              ; preds = %162
  %164 = load i64, ptr @H5E_ID_g, align 8, !tbaa !8
  %165 = load i64, ptr @H5E_BADID_g, align 8, !tbaa !8
  %166 = call i32 (ptr, ptr, i32, i64, i64, ptr, ...) @H5E_printf_stack(ptr noundef @.str.2, ptr noundef @__func__.H5Pset_object_flush_cb, i32 noundef 4549, i64 noundef %164, i64 noundef %165, ptr noundef @.str.19)
  br label %167

167:                                              ; preds = %163
  br label %168

168:                                              ; preds = %167
  store i8 1, ptr %12, align 1, !tbaa !22
  %169 = load i8, ptr %12, align 1, !tbaa !22, !range !24, !noundef !25
  %170 = trunc i8 %169 to i1
  %171 = zext i1 %170 to i8
  store i8 %171, ptr %12, align 1, !tbaa !22
  br label %172

172:                                              ; preds = %168
  br label %173

173:                                              ; preds = %172
  br label %174

174:                                              ; preds = %173
  store i32 -1, ptr %9, align 4, !tbaa !20
  br label %207

175:                                              ; No predecessors!
  br label %176

176:                                              ; preds = %175
  br label %177

177:                                              ; preds = %176
  br label %178

178:                                              ; preds = %177
  br label %179

179:                                              ; preds = %178, %155
  %180 = load ptr, ptr %5, align 8, !tbaa !32
  %181 = getelementptr inbounds nuw %struct.H5F_object_flush_t, ptr %8, i32 0, i32 0
  store ptr %180, ptr %181, align 8, !tbaa !64
  %182 = load ptr, ptr %6, align 8, !tbaa !32
  %183 = getelementptr inbounds nuw %struct.H5F_object_flush_t, ptr %8, i32 0, i32 1
  store ptr %182, ptr %183, align 8, !tbaa !66
  %184 = load ptr, ptr %7, align 8, !tbaa !28
  %185 = call i32 @H5P_set(ptr noundef %184, ptr noundef @.str.119, ptr noundef %8)
  %186 = icmp slt i32 %185, 0
  br i1 %186, label %187, label %206

187:                                              ; preds = %179
  br label %188

188:                                              ; preds = %187
  br label %189

189:                                              ; preds = %188
  br label %190

190:                                              ; preds = %189
  %191 = load i64, ptr @H5E_PLIST_g, align 8, !tbaa !8
  %192 = load i64, ptr @H5E_CANTSET_g, align 8, !tbaa !8
  %193 = call i32 (ptr, ptr, i32, i64, i64, ptr, ...) @H5E_printf_stack(ptr noundef @.str.2, ptr noundef @__func__.H5Pset_object_flush_cb, i32 noundef 4557, i64 noundef %191, i64 noundef %192, ptr noundef @.str.120)
  br label %194

194:                                              ; preds = %190
  br label %195

195:                                              ; preds = %194
  store i8 1, ptr %12, align 1, !tbaa !22
  %196 = load i8, ptr %12, align 1, !tbaa !22, !range !24, !noundef !25
  %197 = trunc i8 %196 to i1
  %198 = zext i1 %197 to i8
  store i8 %198, ptr %12, align 1, !tbaa !22
  br label %199

199:                                              ; preds = %195
  br label %200

200:                                              ; preds = %199
  br label %201

201:                                              ; preds = %200
  store i32 -1, ptr %9, align 4, !tbaa !20
  br label %207

202:                                              ; No predecessors!
  br label %203

203:                                              ; preds = %202
  br label %204

204:                                              ; preds = %203
  br label %205

205:                                              ; preds = %204
  br label %206

206:                                              ; preds = %205, %179
  br label %207

207:                                              ; preds = %206, %201, %174, %150, %121, %89, %51
  %208 = load i8, ptr %11, align 1, !tbaa !22, !range !24, !noundef !25
  %209 = trunc i8 %208 to i1
  %210 = xor i1 %209, true
  %211 = xor i1 %210, true
  %212 = zext i1 %211 to i32
  %213 = sext i32 %212 to i64
  %214 = call i64 @llvm.expect.i64(i64 %213, i64 1)
  %215 = icmp ne i64 %214, 0
  br i1 %215, label %216, label %218

216:                                              ; preds = %207
  %217 = call i32 @H5CX_pop(i1 noundef zeroext true)
  store i8 0, ptr %11, align 1, !tbaa !22
  br label %218

218:                                              ; preds = %216, %207
  %219 = load i8, ptr %12, align 1, !tbaa !22, !range !24, !noundef !25
  %220 = trunc i8 %219 to i1
  %221 = xor i1 %220, true
  %222 = xor i1 %221, true
  %223 = zext i1 %222 to i32
  %224 = sext i32 %223 to i64
  %225 = call i64 @llvm.expect.i64(i64 %224, i64 0)
  %226 = icmp ne i64 %225, 0
  br i1 %226, label %227, label %229

227:                                              ; preds = %218
  %228 = call i32 @H5E_dump_api_stack()
  br label %229

229:                                              ; preds = %227, %218
  %230 = load i32, ptr %9, align 4, !tbaa !20
  call void @llvm.lifetime.end.p0(i64 1, ptr %12) #10
  call void @llvm.lifetime.end.p0(i64 1, ptr %11) #10
  call void @llvm.lifetime.end.p0(i64 480, ptr %10) #10
  call void @llvm.lifetime.end.p0(i64 4, ptr %9) #10
  call void @llvm.lifetime.end.p0(i64 16, ptr %8) #10
  call void @llvm.lifetime.end.p0(i64 8, ptr %7) #10
  ret i32 %230
}