; Function Attrs: nounwind uwtable
define range(i32 -1, 1) i32 @H5Pset_object_flush_cb(i64 noundef %0, ptr noundef %1, ptr noundef %2) local_unnamed_addr #0 {
  %4 = alloca %struct.H5F_object_flush_t, align 8
  %5 = alloca %struct.H5CX_node_t, align 8
  call void @llvm.lifetime.start.p0(i64 16, ptr nonnull %4) #15
  call void @llvm.lifetime.start.p0(i64 480, ptr nonnull %5) #15
  call void @llvm.memset.p0.i64(ptr noundef nonnull align 8 dereferenceable(480) %5, i8 0, i64 480, i1 false)
  %6 = load i8, ptr @H5_libinit_g, align 1, !tbaa !16, !range !18, !noundef !19
  %7 = trunc nuw i8 %6 to i1
  %8 = load i8, ptr @H5_libterm_g, align 1, !range !18
  %9 = trunc nuw i8 %8 to i1
  %10 = select i1 %7, i1 true, i1 %9
  br i1 %10, label %18, label %11, !prof !20

11:                                               ; preds = %3
  %12 = tail call i32 @H5_init_library() #15
  %13 = icmp slt i32 %12, 0
  br i1 %13, label %14, label %._crit_edge, !prof !28

._crit_edge:                                      ; preds = %11
  %.pre = load i8, ptr @H5_libterm_g, align 1, !range !18
  br label %18

14:                                               ; preds = %11
  %15 = load i64, ptr @H5E_FUNC_g, align 8, !tbaa !3
  %16 = load i64, ptr @H5E_CANTINIT_g, align 8, !tbaa !3
  %17 = tail call i32 (ptr, ptr, i32, i64, i64, ptr, ...) @H5E_printf_stack(ptr noundef nonnull @.str.2, ptr noundef nonnull @__func__.H5Pset_object_flush_cb, i32 noundef 4540, i64 noundef %15, i64 noundef %16, ptr noundef nonnull @.str.15) #15
  br label %.thread26

18:                                               ; preds = %._crit_edge, %3
  %19 = phi i8 [ %.pre, %._crit_edge ], [ %8, %3 ]
  %20 = load i8, ptr @H5P_init_g, align 1, !tbaa !16, !range !18, !noundef !19
  %21 = trunc nuw i8 %20 to i1
  %22 = trunc nuw i8 %19 to i1
  %23 = select i1 %21, i1 true, i1 %22
  br i1 %23, label %31, label %24, !prof !20

24:                                               ; preds = %18
  store i8 1, ptr @H5P_init_g, align 1, !tbaa !16
  %25 = tail call i32 @H5P__init_package() #15
  %26 = icmp slt i32 %25, 0
  br i1 %26, label %27, label %31, !prof !29

27:                                               ; preds = %24
  store i8 0, ptr @H5P_init_g, align 1, !tbaa !16
  %28 = load i64, ptr @H5E_FUNC_g, align 8, !tbaa !3
  %29 = load i64, ptr @H5E_CANTINIT_g, align 8, !tbaa !3
  %30 = tail call i32 (ptr, ptr, i32, i64, i64, ptr, ...) @H5E_printf_stack(ptr noundef nonnull @.str.2, ptr noundef nonnull @__func__.H5Pset_object_flush_cb, i32 noundef 4540, i64 noundef %28, i64 noundef %29, ptr noundef nonnull @.str.16) #15
  br label %.thread26

31:                                               ; preds = %18, %24
  %32 = call i32 @H5CX_push(ptr noundef nonnull %5) #15
  %33 = icmp slt i32 %32, 0
  br i1 %33, label %34, label %38, !prof !28

34:                                               ; preds = %31
  %35 = load i64, ptr @H5E_FUNC_g, align 8, !tbaa !3
  %36 = load i64, ptr @H5E_CANTSET_g, align 8, !tbaa !3
  %37 = call i32 (ptr, ptr, i32, i64, i64, ptr, ...) @H5E_printf_stack(ptr noundef nonnull @.str.2, ptr noundef nonnull @__func__.H5Pset_object_flush_cb, i32 noundef 4540, i64 noundef %35, i64 noundef %36, ptr noundef nonnull @.str.17) #15
  br label %.thread26

38:                                               ; preds = %31
  %39 = call i32 @H5E_clear_stack() #15
  %40 = icmp eq ptr %1, null
  %41 = icmp ne ptr %2, null
  %or.cond = and i1 %40, %41
  br i1 %or.cond, label %42, label %46, !prof !30

42:                                               ; preds = %38
  %43 = load i64, ptr @H5E_ARGS_g, align 8, !tbaa !3
  %44 = load i64, ptr @H5E_BADVALUE_g, align 8, !tbaa !3
  %45 = call i32 (ptr, ptr, i32, i64, i64, ptr, ...) @H5E_printf_stack(ptr noundef nonnull @.str.2, ptr noundef nonnull @__func__.H5Pset_object_flush_cb, i32 noundef 4545, i64 noundef %43, i64 noundef %44, ptr noundef nonnull @.str.118) #15
  br label %.thread32

46:                                               ; preds = %38
  %47 = load i64, ptr @H5P_CLS_FILE_ACCESS_ID_g, align 8, !tbaa !3
  %48 = call ptr @H5P_object_verify(i64 noundef %0, i64 noundef %47, i1 noundef zeroext false) #15
  %49 = icmp eq ptr %48, null
  br i1 %49, label %50, label %54, !prof !30

50:                                               ; preds = %46
  %51 = load i64, ptr @H5E_ID_g, align 8, !tbaa !3
  %52 = load i64, ptr @H5E_BADID_g, align 8, !tbaa !3
  %53 = call i32 (ptr, ptr, i32, i64, i64, ptr, ...) @H5E_printf_stack(ptr noundef nonnull @.str.2, ptr noundef nonnull @__func__.H5Pset_object_flush_cb, i32 noundef 4549, i64 noundef %51, i64 noundef %52, ptr noundef nonnull @.str.19) #15
  br label %.thread32

54:                                               ; preds = %46
  store ptr %1, ptr %4, align 8, !tbaa !56
  %55 = getelementptr inbounds nuw i8, ptr %4, i64 8
  store ptr %2, ptr %55, align 8, !tbaa !58
  %56 = call i32 @H5P_set(ptr noundef nonnull %48, ptr noundef nonnull @.str.119, ptr noundef nonnull %4) #15
  %57 = icmp slt i32 %56, 0
  br i1 %57, label %58, label %63, !prof !30

58:                                               ; preds = %54
  %59 = load i64, ptr @H5E_PLIST_g, align 8, !tbaa !3
  %60 = load i64, ptr @H5E_CANTSET_g, align 8, !tbaa !3
  %61 = call i32 (ptr, ptr, i32, i64, i64, ptr, ...) @H5E_printf_stack(ptr noundef nonnull @.str.2, ptr noundef nonnull @__func__.H5Pset_object_flush_cb, i32 noundef 4557, i64 noundef %59, i64 noundef %60, ptr noundef nonnull @.str.120) #15
  br label %.thread32

.thread32:                                        ; preds = %58, %50, %42
  %62 = call i32 @H5CX_pop(i1 noundef zeroext true) #15
  br label %.thread26

63:                                               ; preds = %54
  %64 = call i32 @H5CX_pop(i1 noundef zeroext true) #15
  br label %66

.thread26:                                        ; preds = %34, %27, %14, %.thread32
  %65 = call i32 @H5E_dump_api_stack() #15
  br label %66

66:                                               ; preds = %63, %.thread26
  %.0162129 = phi i32 [ -1, %.thread26 ], [ 0, %63 ]
  call void @llvm.lifetime.end.p0(i64 480, ptr nonnull %5) #15
  call void @llvm.lifetime.end.p0(i64 16, ptr nonnull %4) #15
  ret i32 %.0162129
}